; Function Attrs: mustprogress nounwind uwtable
define internal void @_ZNSt15_Sp_counted_ptrIPN7testing8internal26ParameterizedTestSuiteInfoIN12_GLOBAL__N_126ConcurrentSequenceLockTestEE8TestInfoELN9__gnu_cxx12_Lock_policyE2EE10_M_disposeEv(ptr noundef nonnull readonly align 8 captures(none) dereferenceable(24) %0) unnamed_addr #11 align 2 personality ptr @__gxx_personality_v0 {
  %2 = getelementptr inbounds nuw i8, ptr %0, i64 16
  %3 = load ptr, ptr %2, align 8, !tbaa !99
  %4 = icmp eq ptr %3, null
  br i1 %4, label %28, label %5

5:                                                ; preds = %1
  %6 = getelementptr inbounds nuw i8, ptr %3, i64 40
  %7 = load ptr, ptr %6, align 8, !tbaa !20
  %8 = getelementptr inbounds nuw i8, ptr %3, i64 56
  %9 = icmp eq ptr %7, %8
  br i1 %9, label %_ZNKSt7__cxx1112basic_stringIcSt11char_traitsIcESaIcEE11_M_is_localEv.exit.thread.i.i.i.i, label %_ZNKSt7__cxx1112basic_stringIcSt11char_traitsIcESaIcEE11_M_is_localEv.exit.i.i.i.i

_ZNKSt7__cxx1112basic_stringIcSt11char_traitsIcESaIcEE11_M_is_localEv.exit.thread.i.i.i.i: ; preds = %5
  %10 = getelementptr inbounds nuw i8, ptr %3, i64 48
  %11 = load i64, ptr %10, align 8, !tbaa !22
  %12 = icmp ult i64 %11, 16
  tail call void @llvm.assume(i1 %12)
  br label %_ZN7testing8internal12CodeLocationD2Ev.exit.i

_ZNKSt7__cxx1112basic_stringIcSt11char_traitsIcESaIcEE11_M_is_localEv.exit.i.i.i.i: ; preds = %5
  %13 = load i64, ptr %8, align 8, !tbaa !24
  %14 = add i64 %13, 1
  tail call void @_ZdlPvm(ptr noundef %7, i64 noundef %14) #34
  br label %_ZN7testing8internal12CodeLocationD2Ev.exit.i

_ZN7testing8internal12CodeLocationD2Ev.exit.i:    ; preds = %_ZNKSt7__cxx1112basic_stringIcSt11char_traitsIcESaIcEE11_M_is_localEv.exit.i.i.i.i, %_ZNKSt7__cxx1112basic_stringIcSt11char_traitsIcESaIcEE11_M_is_localEv.exit.thread.i.i.i.i
  %15 = getelementptr inbounds nuw i8, ptr %3, i64 32
  %16 = load ptr, ptr %15, align 8, !tbaa !101
  %.not.i.i = icmp eq ptr %16, null
  br i1 %.not.i.i, label %_ZNSt10unique_ptrIN7testing8internal19TestMetaFactoryBaseISt5tupleIJiiEEEESt14default_deleteIS5_EED2Ev.exit.i, label %_ZNKSt14default_deleteIN7testing8internal19TestMetaFactoryBaseISt5tupleIJiiEEEEEclEPS5_.exit.i.i

_ZNKSt14default_deleteIN7testing8internal19TestMetaFactoryBaseISt5tupleIJiiEEEEEclEPS5_.exit.i.i: ; preds = %_ZN7testing8internal12CodeLocationD2Ev.exit.i
  %17 = load ptr, ptr %16, align 8, !tbaa !18
  %18 = getelementptr inbounds nuw i8, ptr %17, i64 8
  %19 = load ptr, ptr %18, align 8
  tail call void %19(ptr noundef nonnull align 8 dereferenceable(8) %16) #32
  br label %_ZNSt10unique_ptrIN7testing8internal19TestMetaFactoryBaseISt5tupleIJiiEEEESt14default_deleteIS5_EED2Ev.exit.i

_ZNSt10unique_ptrIN7testing8internal19TestMetaFactoryBaseISt5tupleIJiiEEEESt14default_deleteIS5_EED2Ev.exit.i: ; preds = %_ZNKSt14default_deleteIN7testing8internal19TestMetaFactoryBaseISt5tupleIJiiEEEEEclEPS5_.exit.i.i, %_ZN7testing8internal12CodeLocationD2Ev.exit.i
  store ptr null, ptr %15, align 8, !tbaa !101
  %20 = load ptr, ptr %3, align 8, !tbaa !20
  %21 = getelementptr inbounds nuw i8, ptr %3, i64 16
  %22 = icmp eq ptr %20, %21
  br i1 %22, label %_ZNKSt7__cxx1112basic_stringIcSt11char_traitsIcESaIcEE11_M_is_localEv.exit.thread.i.i.i, label %_ZNKSt7__cxx1112basic_stringIcSt11char_traitsIcESaIcEE11_M_is_localEv.exit.i.i.i

_ZNKSt7__cxx1112basic_stringIcSt11char_traitsIcESaIcEE11_M_is_localEv.exit.thread.i.i.i: ; preds = %_ZNSt10unique_ptrIN7testing8internal19TestMetaFactoryBaseISt5tupleIJiiEEEESt14default_deleteIS5_EED2Ev.exit.i
  %23 = getelementptr inbounds nuw i8, ptr %3, i64 8
  %24 = load i64, ptr %23, align 8, !tbaa !22
  %25 = icmp ult i64 %24, 16
  tail call void @llvm.assume(i1 %25)
  br label %_ZN7testing8internal26ParameterizedTestSuiteInfoIN12_GLOBAL__N_126ConcurrentSequenceLockTestEE8TestInfoD2Ev.exit

_ZNKSt7__cxx1112basic_stringIcSt11char_traitsIcESaIcEE11_M_is_localEv.exit.i.i.i: ; preds = %_ZNSt10unique_ptrIN7testing8internal19TestMetaFactoryBaseISt5tupleIJiiEEEESt14default_deleteIS5_EED2Ev.exit.i
  %26 = load i64, ptr %21, align 8, !tbaa !24
  %27 = add i64 %26, 1
  tail call void @_ZdlPvm(ptr noundef %20, i64 noundef %27) #34
  br label %_ZN7testing8internal26ParameterizedTestSuiteInfoIN12_GLOBAL__N_126ConcurrentSequenceLockTestEE8TestInfoD2Ev.exit

_ZN7testing8internal26ParameterizedTestSuiteInfoIN12_GLOBAL__N_126ConcurrentSequenceLockTestEE8TestInfoD2Ev.exit: ; preds = %_ZNKSt7__cxx1112basic_stringIcSt11char_traitsIcESaIcEE11_M_is_localEv.exit.thread.i.i.i, %_ZNKSt7__cxx1112basic_stringIcSt11char_traitsIcESaIcEE11_M_is_localEv.exit.i.i.i
  tail call void @_ZdlPvm(ptr noundef nonnull %3, i64 noundef 80) #34
  br label %28

28:                                               ; preds = %_ZN7testing8internal26ParameterizedTestSuiteInfoIN12_GLOBAL__N_126ConcurrentSequenceLockTestEE8TestInfoD2Ev.exit, %1
  ret void
}